target datalayout = "e-m:e-p270:32:32-p271:32:32-p272:64:64-i64:64-i128:128-f80:128-n8:16:32:64-S128"
target triple = "x86_64-pc-linux-gnu"

%class.PcDescCache = type { [4 x ptr] }
%class.PcDesc = type { i32, i32, i32, i32 }

; Function Attrs: mustprogress nounwind uwtable
define linkonce_odr hidden noundef i32 @_ZNK6PcDesc9pc_offsetEv(ptr noundef nonnull align 4 dereferenceable(16) %0) #1 comdat align 2 {
  %2 = alloca ptr, align 8
  store ptr %0, ptr %2, align 8
  %3 = load ptr, ptr %2, align 8
  %4 = getelementptr inbounds %class.PcDesc, ptr %3, i32 0, i32 0
  %5 = load i32, ptr %4, align 4
  ret i32 %5
}

; Function Attrs: mustprogress nounwind uwtable
define internal noundef zeroext i1 @_ZL10match_descP6PcDescib(ptr noundef %0, i32 noundef %1, i1 noundef zeroext %2) #1 {
  %4 = alloca i1, align 1
  %5 = alloca ptr, align 8
  %6 = alloca i32, align 4
  %7 = alloca i8, align 1
  store ptr %0, ptr %5, align 8
  store i32 %1, ptr %6, align 4
  %8 = zext i1 %2 to i8
  store i8 %8, ptr %7, align 1
  %9 = load i8, ptr %7, align 1
  %10 = trunc i8 %9 to i1
  br i1 %10, label %16, label %11

11:                                               ; preds = %3
  %12 = load ptr, ptr %5, align 8
  %13 = call noundef i32 @_ZNK6PcDesc9pc_offsetEv(ptr noundef nonnull align 4 dereferenceable(16) %12)
  %14 = load i32, ptr %6, align 4
  %15 = icmp eq i32 %13, %14
  store i1 %15, ptr %4, align 1
  br label %29

16:                                               ; preds = %3
  %17 = load ptr, ptr %5, align 8
  %18 = getelementptr inbounds %class.PcDesc, ptr %17, i64 -1
  %19 = call noundef i32 @_ZNK6PcDesc9pc_offsetEv(ptr noundef nonnull align 4 dereferenceable(16) %18)
  %20 = load i32, ptr %6, align 4
  %21 = icmp slt i32 %19, %20
  br i1 %21, label %22, label %27

22:                                               ; preds = %16
  %23 = load i32, ptr %6, align 4
  %24 = load ptr, ptr %5, align 8
  %25 = call noundef i32 @_ZNK6PcDesc9pc_offsetEv(ptr noundef nonnull align 4 dereferenceable(16) %24)
  %26 = icmp sle i32 %23, %25
  br label %27

27:                                               ; preds = %22, %16
  %28 = phi i1 [ false, %16 ], [ %26, %22 ]
  store i1 %28, ptr %4, align 1
  br label %29

29:                                               ; preds = %27, %11
  %30 = load i1, ptr %4, align 1
  ret i1 %30
}

; Function Attrs: mustprogress nounwind uwtable
define hidden noundef ptr @_ZN11PcDescCache12find_pc_descEib(ptr noundef nonnull align 8 dereferenceable(32) %0, i32 noundef %1, i1 noundef zeroext %2) #1 align 2 {
  %4 = alloca ptr, align 8
  %5 = alloca ptr, align 8
  %6 = alloca i32, align 4
  %7 = alloca i8, align 1
  %8 = alloca ptr, align 8
  %9 = alloca i32, align 4
  store ptr %0, ptr %5, align 8
  store i32 %1, ptr %6, align 4
  %10 = zext i1 %2 to i8
  store i8 %10, ptr %7, align 1
  %11 = load ptr, ptr %5, align 8
  %12 = getelementptr inbounds %class.PcDescCache, ptr %11, i32 0, i32 0
  %13 = getelementptr inbounds [4 x ptr], ptr %12, i64 0, i64 0
  %14 = load volatile ptr, ptr %13, align 8
  store ptr %14, ptr %8, align 8
  %15 = load i8, ptr %7, align 1
  %16 = trunc i8 %15 to i1
  br i1 %16, label %17, label %25

17:                                               ; preds = %3
  %18 = load ptr, ptr %8, align 8
  %19 = load i32, ptr %6, align 4
  %20 = load i8, ptr %7, align 1
  %21 = trunc i8 %20 to i1
  %22 = call noundef zeroext i1 @_ZL10match_descP6PcDescib(ptr noundef %18, i32 noundef %19, i1 noundef zeroext %21)
  br i1 %22, label %23, label %25

23:                                               ; preds = %17
  %24 = load ptr, ptr %8, align 8
  store ptr %24, ptr %4, align 8
  br label %52

25:                                               ; preds = %17, %3
  store i32 1, ptr %9, align 4
  br label %26

26:                                               ; preds = %48, %25
  %27 = load i32, ptr %9, align 4
  %28 = icmp slt i32 %27, 4
  br i1 %28, label %29, label %51

29:                                               ; preds = %26
  %30 = getelementptr inbounds %class.PcDescCache, ptr %11, i32 0, i32 0
  %31 = load i32, ptr %9, align 4
  %32 = sext i32 %31 to i64
  %33 = getelementptr inbounds [4 x ptr], ptr %30, i64 0, i64 %32
  %34 = load volatile ptr, ptr %33, align 8
  store ptr %34, ptr %8, align 8
  %35 = load ptr, ptr %8, align 8
  %36 = call noundef i32 @_ZNK6PcDesc9pc_offsetEv(ptr noundef nonnull align 4 dereferenceable(16) %35)
  %37 = icmp slt i32 %36, 0
  br i1 %37, label %38, label %39

38:                                               ; preds = %29
  br label %51

39:                                               ; preds = %29
  %40 = load ptr, ptr %8, align 8
  %41 = load i32, ptr %6, align 4
  %42 = load i8, ptr %7, align 1
  %43 = trunc i8 %42 to i1
  %44 = call noundef zeroext i1 @_ZL10match_descP6PcDescib(ptr noundef %40, i32 noundef %41, i1 noundef zeroext %43)
  br i1 %44, label %45, label %47

45:                                               ; preds = %39
  %46 = load ptr, ptr %8, align 8
  store ptr %46, ptr %4, align 8
  br label %52

47:                                               ; preds = %39
  br label %48

48:                                               ; preds = %47
  %49 = load i32, ptr %9, align 4
  %50 = add nsw i32 %49, 1
  store i32 %50, ptr %9, align 4
  br label %26, !llvm.loop !9

51:                                               ; preds = %38, %26
  store ptr null, ptr %4, align 8
  br label %52

52:                                               ; preds = %51, %45, %23
  %53 = load ptr, ptr %4, align 8
  ret ptr %53
}