; Function Attrs: mustprogress nofree norecurse nounwind memory(read, argmem: readwrite, inaccessiblemem: readwrite) uwtable
define hidden noundef ptr @_ZN11PcDescCache12find_pc_descEib(ptr noundef nonnull align 8 dereferenceable(32) %0, i32 noundef %1, i1 noundef zeroext %2) local_unnamed_addr #3 align 2 {
  %4 = load volatile ptr, ptr %0, align 8
  br i1 %2, label %5, label %_ZL10match_descP6PcDescib.exit.thread.split

5:                                                ; preds = %3
  %6 = getelementptr inbounds i8, ptr %4, i64 -16
  %7 = load i32, ptr %6, align 4
  %8 = icmp slt i32 %7, %1
  br i1 %8, label %_ZL10match_descP6PcDescib.exit, label %_ZL10match_descP6PcDescib.exit.thread.split.us.preheader

_ZL10match_descP6PcDescib.exit:                   ; preds = %5
  %9 = load i32, ptr %4, align 4
  %.not = icmp slt i32 %9, %1
  br i1 %.not, label %_ZL10match_descP6PcDescib.exit.thread.split.us.preheader, label %.loopexit

_ZL10match_descP6PcDescib.exit.thread.split.us.preheader: ; preds = %_ZL10match_descP6PcDescib.exit, %5
  br label %_ZL10match_descP6PcDescib.exit.thread.split.us

_ZL10match_descP6PcDescib.exit.thread.split.us:   ; preds = %_ZL10match_descP6PcDescib.exit.thread.split.us.preheader, %_ZL10match_descP6PcDescib.exit17.thread.us
  %indvars.iv24 = phi i64 [ %indvars.iv.next25, %_ZL10match_descP6PcDescib.exit17.thread.us ], [ 1, %_ZL10match_descP6PcDescib.exit.thread.split.us.preheader ]
  %10 = getelementptr inbounds [4 x ptr], ptr %0, i64 0, i64 %indvars.iv24
  %11 = load volatile ptr, ptr %10, align 8
  %12 = load i32, ptr %11, align 4
  %13 = icmp slt i32 %12, 0
  br i1 %13, label %.loopexit, label %14

14:                                               ; preds = %_ZL10match_descP6PcDescib.exit.thread.split.us
  %15 = getelementptr inbounds i8, ptr %11, i64 -16
  %16 = load i32, ptr %15, align 4
  %17 = icmp slt i32 %16, %1
  %18 = icmp sge i32 %12, %1
  %or.cond.us = and i1 %18, %17
  br i1 %or.cond.us, label %.loopexit, label %_ZL10match_descP6PcDescib.exit17.thread.us

_ZL10match_descP6PcDescib.exit17.thread.us:       ; preds = %14
  %indvars.iv.next25 = add nuw nsw i64 %indvars.iv24, 1
  %exitcond27.not = icmp eq i64 %indvars.iv.next25, 4
  br i1 %exitcond27.not, label %.loopexit, label %_ZL10match_descP6PcDescib.exit.thread.split.us, !llvm.loop !10

_ZL10match_descP6PcDescib.exit.thread.split:      ; preds = %3, %_ZL10match_descP6PcDescib.exit17.thread
  %indvars.iv = phi i64 [ %indvars.iv.next, %_ZL10match_descP6PcDescib.exit17.thread ], [ 1, %3 ]
  %19 = getelementptr inbounds [4 x ptr], ptr %0, i64 0, i64 %indvars.iv
  %20 = load volatile ptr, ptr %19, align 8
  %21 = load i32, ptr %20, align 4
  %22 = icmp slt i32 %21, 0
  br i1 %22, label %.loopexit, label %23

23:                                               ; preds = %_ZL10match_descP6PcDescib.exit.thread.split
  %24 = icmp eq i32 %21, %1
  br i1 %24, label %.loopexit, label %_ZL10match_descP6PcDescib.exit17.thread

_ZL10match_descP6PcDescib.exit17.thread:          ; preds = %23
  %indvars.iv.next = add nuw nsw i64 %indvars.iv, 1
  %exitcond.not = icmp eq i64 %indvars.iv.next, 4
  br i1 %exitcond.not, label %.loopexit, label %_ZL10match_descP6PcDescib.exit.thread.split, !llvm.loop !10

.loopexit:                                        ; preds = %_ZL10match_descP6PcDescib.exit.thread.split, %_ZL10match_descP6PcDescib.exit17.thread, %23, %_ZL10match_descP6PcDescib.exit17.thread.us, %14, %_ZL10match_descP6PcDescib.exit.thread.split.us, %_ZL10match_descP6PcDescib.exit
  %.014 = phi ptr [ %4, %_ZL10match_descP6PcDescib.exit ], [ %11, %14 ], [ null, %_ZL10match_descP6PcDescib.exit17.thread.us ], [ null, %_ZL10match_descP6PcDescib.exit.thread.split.us ], [ %20, %23 ], [ null, %_ZL10match_descP6PcDescib.exit17.thread ], [ null, %_ZL10match_descP6PcDescib.exit.thread.split ]
  ret ptr %.014
}